target datalayout = "e-m:e-p270:32:32-p271:32:32-p272:64:64-i64:64-i128:128-f80:128-n8:16:32:64-S128"
target triple = "x86_64-pc-linux-gnu"

%struct.hb_sparseset_t = type { %struct.hb_object_header_t, %struct.hb_bit_set_invertible_t }
%struct.hb_object_header_t = type { %struct.hb_reference_count_t, %struct.hb_atomic_int_t, %struct.hb_atomic_ptr_t }
%struct.hb_reference_count_t = type { %struct.hb_atomic_int_t }
%struct.hb_atomic_int_t = type { i32 }
%struct.hb_atomic_ptr_t = type { ptr }
%struct.hb_bit_set_invertible_t = type <{ %struct.hb_bit_set_t, i8, [7 x i8] }>
%struct.hb_bit_set_t = type { i8, i32, %struct.hb_atomic_int_t, %struct.hb_vector_t, %struct.hb_vector_t.0 }
%struct.hb_vector_t = type { i32, i32, ptr }
%struct.hb_vector_t.0 = type { i32, i32, ptr }

; Function Attrs: mustprogress uwtable
define linkonce_odr hidden void @_ZN23hb_bit_set_invertible_t3setERKS_(ptr noundef nonnull align 8 dereferenceable(49) %0, ptr noundef nonnull align 8 dereferenceable(49) %1) #0 comdat align 2 {
  %3 = alloca ptr, align 8
  %4 = alloca ptr, align 8
  store ptr %0, ptr %3, align 8
  store ptr %1, ptr %4, align 8
  %5 = load ptr, ptr %3, align 8
  %6 = getelementptr inbounds %struct.hb_bit_set_invertible_t, ptr %5, i32 0, i32 0
  %7 = load ptr, ptr %4, align 8
  %8 = getelementptr inbounds %struct.hb_bit_set_invertible_t, ptr %7, i32 0, i32 0
  call void @_ZN12hb_bit_set_t3setERKS_b(ptr noundef nonnull align 8 dereferenceable(48) %6, ptr noundef nonnull align 8 dereferenceable(48) %8, i1 noundef zeroext false)
  %9 = getelementptr inbounds %struct.hb_bit_set_invertible_t, ptr %5, i32 0, i32 0
  %10 = getelementptr inbounds %struct.hb_bit_set_t, ptr %9, i32 0, i32 0
  %11 = load i8, ptr %10, align 8
  %12 = trunc i8 %11 to i1
  br i1 %12, label %13, label %20

13:                                               ; preds = %2
  %14 = load ptr, ptr %4, align 8
  %15 = getelementptr inbounds %struct.hb_bit_set_invertible_t, ptr %14, i32 0, i32 1
  %16 = load i8, ptr %15, align 8
  %17 = trunc i8 %16 to i1
  %18 = getelementptr inbounds %struct.hb_bit_set_invertible_t, ptr %5, i32 0, i32 1
  %19 = zext i1 %17 to i8
  store i8 %19, ptr %18, align 8
  br label %20

20:                                               ; preds = %13, %2
  ret void
}

; Function Attrs: mustprogress uwtable
define linkonce_odr hidden void @_ZN14hb_sparseset_tI23hb_bit_set_invertible_tE3setERKS1_(ptr noundef nonnull align 8 dereferenceable(72) %0, ptr noundef nonnull align 8 dereferenceable(72) %1) #0 comdat align 2 {
  %3 = alloca ptr, align 8
  %4 = alloca ptr, align 8
  store ptr %0, ptr %3, align 8
  store ptr %1, ptr %4, align 8
  %5 = load ptr, ptr %3, align 8
  %6 = getelementptr inbounds %struct.hb_sparseset_t, ptr %5, i32 0, i32 1
  %7 = load ptr, ptr %4, align 8
  %8 = getelementptr inbounds %struct.hb_sparseset_t, ptr %7, i32 0, i32 1
  call void @_ZN23hb_bit_set_invertible_t3setERKS_(ptr noundef nonnull align 8 dereferenceable(49) %6, ptr noundef nonnull align 8 dereferenceable(49) %8)
  ret void
}

; Function Attrs: mustprogress uwtable
define hidden void @hb_set_set(ptr noundef %0, ptr noundef %1) #0 {
  %3 = alloca ptr, align 8
  %4 = alloca ptr, align 8
  store ptr %0, ptr %3, align 8
  store ptr %1, ptr %4, align 8
  %5 = load ptr, ptr %3, align 8
  %6 = load ptr, ptr %4, align 8
  call void @_ZN14hb_sparseset_tI23hb_bit_set_invertible_tE3setERKS1_(ptr noundef nonnull align 8 dereferenceable(72) %5, ptr noundef nonnull align 8 dereferenceable(72) %6)
  ret void
}