; Function Attrs: mustprogress uwtable
define hidden void @hb_set_set(ptr noundef %0, ptr noundef %1) local_unnamed_addr #3 {
  %3 = getelementptr inbounds i8, ptr %0, i64 16
  %4 = getelementptr inbounds i8, ptr %1, i64 16
  tail call void @_ZN12hb_bit_set_t3setERKS_b(ptr noundef nonnull align 8 dereferenceable(48) %3, ptr noundef nonnull align 8 dereferenceable(48) %4, i1 noundef zeroext false)
  %5 = load i8, ptr %3, align 8
  %6 = trunc i8 %5 to i1
  br i1 %6, label %7, label %_ZN14hb_sparseset_tI23hb_bit_set_invertible_tE3setERKS1_.exit

7:                                                ; preds = %2
  %8 = getelementptr inbounds i8, ptr %1, i64 64
  %9 = load i8, ptr %8, align 8
  %10 = getelementptr inbounds i8, ptr %0, i64 64
  %11 = and i8 %9, 1
  store i8 %11, ptr %10, align 8
  br label %_ZN14hb_sparseset_tI23hb_bit_set_invertible_tE3setERKS1_.exit

_ZN14hb_sparseset_tI23hb_bit_set_invertible_tE3setERKS1_.exit: ; preds = %2, %7
  ret void
}